target datalayout = "e-m:e-p270:32:32-p271:32:32-p272:64:64-i64:64-i128:128-f80:128-n8:16:32:64-S128"
target triple = "x86_64-pc-linux-gnu"

%struct.AVAudioFifo = type { ptr, i32, i32, i32, i32, i32, i32 }

; Function Attrs: nounwind uwtable
define i32 @av_audio_fifo_realloc(ptr noundef %0, i32 noundef %1) #0 {
  %3 = alloca i32, align 4
  %4 = alloca ptr, align 8
  %5 = alloca i32, align 4
  %6 = alloca i64, align 8
  %7 = alloca i32, align 4
  %8 = alloca i32, align 4
  %9 = alloca i32, align 4
  %10 = alloca i32, align 4
  store ptr %0, ptr %4, align 8, !tbaa !4
  store i32 %1, ptr %5, align 4, !tbaa !14
  call void @llvm.lifetime.start.p0(i64 8, ptr %6) #3
  %11 = load ptr, ptr %4, align 8, !tbaa !4
  %12 = getelementptr inbounds nuw %struct.AVAudioFifo, ptr %11, i32 0, i32 0
  %13 = load ptr, ptr %12, align 8, !tbaa !9
  %14 = getelementptr inbounds ptr, ptr %13, i64 0
  %15 = load ptr, ptr %14, align 8, !tbaa !21
  %16 = call i64 @av_fifo_can_read(ptr noundef %15)
  %17 = load ptr, ptr %4, align 8, !tbaa !4
  %18 = getelementptr inbounds nuw %struct.AVAudioFifo, ptr %17, i32 0, i32 0
  %19 = load ptr, ptr %18, align 8, !tbaa !9
  %20 = getelementptr inbounds ptr, ptr %19, i64 0
  %21 = load ptr, ptr %20, align 8, !tbaa !21
  %22 = call i64 @av_fifo_can_write(ptr noundef %21)
  %23 = add i64 %16, %22
  store i64 %23, ptr %6, align 8, !tbaa !25
  call void @llvm.lifetime.start.p0(i64 4, ptr %7) #3
  call void @llvm.lifetime.start.p0(i64 4, ptr %8) #3
  call void @llvm.lifetime.start.p0(i64 4, ptr %9) #3
  %24 = load ptr, ptr %4, align 8, !tbaa !4
  %25 = getelementptr inbounds nuw %struct.AVAudioFifo, ptr %24, i32 0, i32 4
  %26 = load i32, ptr %25, align 4, !tbaa !18
  %27 = load i32, ptr %5, align 4, !tbaa !14
  %28 = load ptr, ptr %4, align 8, !tbaa !4
  %29 = getelementptr inbounds nuw %struct.AVAudioFifo, ptr %28, i32 0, i32 5
  %30 = load i32, ptr %29, align 8, !tbaa !19
  %31 = call i32 @av_samples_get_buffer_size(ptr noundef %9, i32 noundef %26, i32 noundef %27, i32 noundef %30, i32 noundef 1)
  store i32 %31, ptr %8, align 4, !tbaa !14
  %32 = icmp slt i32 %31, 0
  br i1 %32, label %33, label %35

33:                                               ; preds = %2
  %34 = load i32, ptr %8, align 4, !tbaa !14
  store i32 %34, ptr %3, align 4
  store i32 1, ptr %10, align 4
  br label %72

35:                                               ; preds = %2
  %36 = load i32, ptr %9, align 4, !tbaa !14
  %37 = sext i32 %36 to i64
  %38 = load i64, ptr %6, align 8, !tbaa !25
  %39 = icmp ugt i64 %37, %38
  br i1 %39, label %40, label %68

40:                                               ; preds = %35
  store i32 0, ptr %7, align 4, !tbaa !14
  br label %41

41:                                               ; preds = %64, %40
  %42 = load i32, ptr %7, align 4, !tbaa !14
  %43 = load ptr, ptr %4, align 8, !tbaa !4
  %44 = getelementptr inbounds nuw %struct.AVAudioFifo, ptr %43, i32 0, i32 1
  %45 = load i32, ptr %44, align 8, !tbaa !15
  %46 = icmp slt i32 %42, %45
  br i1 %46, label %47, label %67

47:                                               ; preds = %41
  %48 = load ptr, ptr %4, align 8, !tbaa !4
  %49 = getelementptr inbounds nuw %struct.AVAudioFifo, ptr %48, i32 0, i32 0
  %50 = load ptr, ptr %49, align 8, !tbaa !9
  %51 = load i32, ptr %7, align 4, !tbaa !14
  %52 = sext i32 %51 to i64
  %53 = getelementptr inbounds ptr, ptr %50, i64 %52
  %54 = load ptr, ptr %53, align 8, !tbaa !21
  %55 = load i32, ptr %9, align 4, !tbaa !14
  %56 = sext i32 %55 to i64
  %57 = load i64, ptr %6, align 8, !tbaa !25
  %58 = sub i64 %56, %57
  %59 = call i32 @av_fifo_grow2(ptr noundef %54, i64 noundef %58)
  store i32 %59, ptr %8, align 4, !tbaa !14
  %60 = icmp slt i32 %59, 0
  br i1 %60, label %61, label %63

61:                                               ; preds = %47
  %62 = load i32, ptr %8, align 4, !tbaa !14
  store i32 %62, ptr %3, align 4
  store i32 1, ptr %10, align 4
  br label %72

63:                                               ; preds = %47
  br label %64

64:                                               ; preds = %63
  %65 = load i32, ptr %7, align 4, !tbaa !14
  %66 = add nsw i32 %65, 1
  store i32 %66, ptr %7, align 4, !tbaa !14
  br label %41, !llvm.loop !27

67:                                               ; preds = %41
  br label %68

68:                                               ; preds = %67, %35
  %69 = load i32, ptr %5, align 4, !tbaa !14
  %70 = load ptr, ptr %4, align 8, !tbaa !4
  %71 = getelementptr inbounds nuw %struct.AVAudioFifo, ptr %70, i32 0, i32 3
  store i32 %69, ptr %71, align 8, !tbaa !24
  store i32 0, ptr %3, align 4
  store i32 1, ptr %10, align 4
  br label %72

72:                                               ; preds = %68, %61, %33
  call void @llvm.lifetime.end.p0(i64 4, ptr %9) #3
  call void @llvm.lifetime.end.p0(i64 4, ptr %8) #3
  call void @llvm.lifetime.end.p0(i64 4, ptr %7) #3
  call void @llvm.lifetime.end.p0(i64 8, ptr %6) #3
  %73 = load i32, ptr %3, align 4
  ret i32 %73
}