; Function Attrs: nounwind uwtable
define range(i32 -2147483648, 1) i32 @av_audio_fifo_realloc(ptr noundef captures(none) %0, i32 noundef %1) local_unnamed_addr #0 {
  %3 = alloca i32, align 4
  %4 = load ptr, ptr %0, align 8, !tbaa !4
  %5 = load ptr, ptr %4, align 8, !tbaa !20
  %6 = tail call i64 @av_fifo_can_read(ptr noundef %5) #5
  %7 = load ptr, ptr %0, align 8, !tbaa !4
  %8 = load ptr, ptr %7, align 8, !tbaa !20
  %9 = tail call i64 @av_fifo_can_write(ptr noundef %8) #5
  %10 = add i64 %9, %6
  call void @llvm.lifetime.start.p0(i64 4, ptr nonnull %3) #5
  %11 = getelementptr inbounds nuw i8, ptr %0, i64 20
  %12 = load i32, ptr %11, align 4, !tbaa !15
  %13 = getelementptr inbounds nuw i8, ptr %0, i64 24
  %14 = load i32, ptr %13, align 8, !tbaa !16
  %15 = call i32 @av_samples_get_buffer_size(ptr noundef nonnull %3, i32 noundef %12, i32 noundef %1, i32 noundef %14, i32 noundef 1) #5
  %16 = icmp slt i32 %15, 0
  br i1 %16, label %.loopexit20, label %17

17:                                               ; preds = %2
  %18 = load i32, ptr %3, align 4, !tbaa !17
  %19 = sext i32 %18 to i64
  %20 = icmp ult i64 %10, %19
  br i1 %20, label %.preheader, label %.loopexit

.preheader:                                       ; preds = %17
  %21 = getelementptr inbounds nuw i8, ptr %0, i64 8
  %22 = load i32, ptr %21, align 8, !tbaa !12
  %23 = icmp sgt i32 %22, 0
  br i1 %23, label %.lr.ph, label %.loopexit

24:                                               ; preds = %.lr.ph
  %indvars.iv.next = add nuw nsw i64 %indvars.iv, 1
  %25 = load i32, ptr %21, align 8, !tbaa !12
  %26 = sext i32 %25 to i64
  %27 = icmp slt i64 %indvars.iv.next, %26
  br i1 %27, label %.lr.ph, label %.loopexit, !llvm.loop !23

.lr.ph:                                           ; preds = %.preheader, %24
  %indvars.iv = phi i64 [ %indvars.iv.next, %24 ], [ 0, %.preheader ]
  %28 = load ptr, ptr %0, align 8, !tbaa !4
  %29 = getelementptr inbounds nuw ptr, ptr %28, i64 %indvars.iv
  %30 = load ptr, ptr %29, align 8, !tbaa !20
  %31 = load i32, ptr %3, align 4, !tbaa !17
  %32 = sext i32 %31 to i64
  %33 = sub i64 %32, %10
  %34 = call i32 @av_fifo_grow2(ptr noundef %30, i64 noundef %33) #5
  %35 = icmp slt i32 %34, 0
  br i1 %35, label %.loopexit20, label %24

.loopexit:                                        ; preds = %24, %.preheader, %17
  %36 = getelementptr inbounds nuw i8, ptr %0, i64 16
  store i32 %1, ptr %36, align 8, !tbaa !22
  br label %.loopexit20

.loopexit20:                                      ; preds = %.lr.ph, %2, %.loopexit
  %.016 = phi i32 [ 0, %.loopexit ], [ %15, %2 ], [ %34, %.lr.ph ]
  call void @llvm.lifetime.end.p0(i64 4, ptr nonnull %3) #5
  ret i32 %.016
}